; Function Attrs: nounwind uwtable
define dso_local i64 @show_config_by_name(ptr noundef readonly captures(none) %0) local_unnamed_addr #0 {
  %2 = getelementptr inbounds nuw i8, ptr %0, i64 32
  %3 = load i64, ptr %2, align 8
  %4 = inttoptr i64 %3 to ptr
  %5 = tail call ptr @text_to_cstring(ptr noundef %4) #7
  %6 = tail call ptr @GetConfigOptionByName(ptr noundef %5, ptr noundef null, i1 noundef zeroext false) #7
  %7 = tail call ptr @cstring_to_text(ptr noundef %6) #7
  %8 = ptrtoint ptr %7 to i64
  ret i64 %8
}